target datalayout = "e-m:e-p270:32:32-p271:32:32-p272:64:64-i64:64-i128:128-f80:128-n8:16:32:64-S128"
target triple = "x86_64-pc-linux-gnu"

%"class.QMetaObject::Connection" = type { ptr }
%"class.TCPStreamDialog::GraphUpdater" = type <{ ptr, ptr, i8, [7 x i8] }>

@.str.53 = private unnamed_addr constant [11 x i8] c"2timeout()\00", align 1
@.str.54 = private unnamed_addr constant [15 x i8] c"1updateGraph()\00", align 1

; Function Attrs: mustprogress nounwind uwtable
define linkonce_odr noundef zeroext i1 @_ZN15TCPStreamDialog12GraphUpdater16hasPendingUpdateEv(ptr noundef nonnull align 8 dereferenceable(17) %0) #2 comdat align 2 {
  %2 = alloca ptr, align 8
  store ptr %0, ptr %2, align 8
  %3 = load ptr, ptr %2, align 8
  %4 = getelementptr inbounds %"class.TCPStreamDialog::GraphUpdater", ptr %3, i32 0, i32 1
  %5 = load ptr, ptr %4, align 8
  %6 = icmp ne ptr %5, null
  ret i1 %6
}

; Function Attrs: mustprogress uwtable
define void @_ZN15TCPStreamDialog12GraphUpdater13triggerUpdateEib(ptr noundef nonnull align 8 dereferenceable(17) %0, i32 noundef %1, i1 noundef zeroext %2) #1 align 2 personality ptr @__gxx_personality_v0 {
  %4 = alloca ptr, align 8
  %5 = alloca i32, align 4
  %6 = alloca i8, align 1
  %7 = alloca ptr, align 8
  %8 = alloca i32, align 4
  %9 = alloca %"class.QMetaObject::Connection", align 8
  store ptr %0, ptr %4, align 8
  store i32 %1, ptr %5, align 4
  %10 = zext i1 %2 to i8
  store i8 %10, ptr %6, align 1
  %11 = load ptr, ptr %4, align 8
  %12 = call noundef zeroext i1 @_ZN15TCPStreamDialog12GraphUpdater16hasPendingUpdateEv(ptr noundef nonnull align 8 dereferenceable(17) %11)
  br i1 %12, label %29, label %13

13:                                               ; preds = %3
  %14 = call noalias noundef nonnull ptr @_Znwm(i64 noundef 16) #19
  %15 = getelementptr inbounds %"class.TCPStreamDialog::GraphUpdater", ptr %11, i32 0, i32 0
  %16 = load ptr, ptr %15, align 8
  invoke void @_ZN6QTimerC1EP7QObject(ptr noundef nonnull align 8 dereferenceable(16) %14, ptr noundef %16)
          to label %17 unwind label %25

17:                                               ; preds = %13
  %18 = getelementptr inbounds %"class.TCPStreamDialog::GraphUpdater", ptr %11, i32 0, i32 1
  store ptr %14, ptr %18, align 8
  %19 = getelementptr inbounds %"class.TCPStreamDialog::GraphUpdater", ptr %11, i32 0, i32 1
  %20 = load ptr, ptr %19, align 8
  call void @_ZN6QTimer13setSingleShotEb(ptr noundef nonnull align 8 dereferenceable(16) %20, i1 noundef zeroext true)
  %21 = getelementptr inbounds %"class.TCPStreamDialog::GraphUpdater", ptr %11, i32 0, i32 1
  %22 = load ptr, ptr %21, align 8
  %23 = getelementptr inbounds %"class.TCPStreamDialog::GraphUpdater", ptr %11, i32 0, i32 0
  %24 = load ptr, ptr %23, align 8
  call void @_ZN7QObject7connectEPKS_PKcS1_S3_N2Qt14ConnectionTypeE(ptr dead_on_unwind writable sret(%"class.QMetaObject::Connection") align 8 %9, ptr noundef %22, ptr noundef @.str.53, ptr noundef %24, ptr noundef @.str.54, i32 noundef 0)
  call void @_ZN11QMetaObject10ConnectionD1Ev(ptr noundef nonnull align 8 dereferenceable(8) %9) #3
  br label %29

25:                                               ; preds = %13
  %26 = landingpad { ptr, i32 }
          cleanup
  %27 = extractvalue { ptr, i32 } %26, 0
  store ptr %27, ptr %7, align 8
  %28 = extractvalue { ptr, i32 } %26, 1
  store i32 %28, ptr %8, align 4
  call void @_ZdlPv(ptr noundef %14) #18
  br label %43

29:                                               ; preds = %17, %3
  %30 = getelementptr inbounds %"class.TCPStreamDialog::GraphUpdater", ptr %11, i32 0, i32 2
  %31 = load i8, ptr %30, align 8
  %32 = trunc i8 %31 to i1
  br i1 %32, label %36, label %33

33:                                               ; preds = %29
  %34 = load i8, ptr %6, align 1
  %35 = trunc i8 %34 to i1
  br label %36

36:                                               ; preds = %33, %29
  %37 = phi i1 [ true, %29 ], [ %35, %33 ]
  %38 = getelementptr inbounds %"class.TCPStreamDialog::GraphUpdater", ptr %11, i32 0, i32 2
  %39 = zext i1 %37 to i8
  store i8 %39, ptr %38, align 8
  %40 = getelementptr inbounds %"class.TCPStreamDialog::GraphUpdater", ptr %11, i32 0, i32 1
  %41 = load ptr, ptr %40, align 8
  %42 = load i32, ptr %5, align 4
  call void @_ZN6QTimer5startEi(ptr noundef nonnull align 8 dereferenceable(16) %41, i32 noundef %42)
  ret void

43:                                               ; preds = %25
  %44 = load ptr, ptr %7, align 8
  %45 = load i32, ptr %8, align 4
  %46 = insertvalue { ptr, i32 } poison, ptr %44, 0
  %47 = insertvalue { ptr, i32 } %46, i32 %45, 1
  resume { ptr, i32 } %47
}