; Function Attrs: mustprogress uwtable
define void @_ZN15TCPStreamDialog12GraphUpdater13triggerUpdateEib(ptr nocapture noundef nonnull align 8 dereferenceable(17) %0, i32 noundef %1, i1 noundef zeroext %2) local_unnamed_addr #2 align 2 personality ptr @__gxx_personality_v0 {
  %4 = alloca %"class.QMetaObject::Connection", align 8
  %5 = getelementptr inbounds i8, ptr %0, i64 8
  %6 = load ptr, ptr %5, align 8
  %.not = icmp eq ptr %6, null
  br i1 %.not, label %7, label %15

7:                                                ; preds = %3
  %8 = tail call noalias noundef nonnull dereferenceable(16) ptr @_Znwm(i64 noundef 16) #26
  %9 = load ptr, ptr %0, align 8
  invoke void @_ZN6QTimerC1EP7QObject(ptr noundef nonnull align 8 dereferenceable(16) %8, ptr noundef %9)
          to label %10 unwind label %13

10:                                               ; preds = %7
  store ptr %8, ptr %5, align 8
  tail call void @_ZN6QTimer13setSingleShotEb(ptr noundef nonnull align 8 dereferenceable(16) %8, i1 noundef zeroext true)
  %11 = load ptr, ptr %5, align 8
  %12 = load ptr, ptr %0, align 8
  call void @_ZN7QObject7connectEPKS_PKcS1_S3_N2Qt14ConnectionTypeE(ptr dead_on_unwind nonnull writable sret(%"class.QMetaObject::Connection") align 8 %4, ptr noundef %11, ptr noundef nonnull @.str.53, ptr noundef %12, ptr noundef nonnull @.str.54, i32 noundef 0)
  call void @_ZN11QMetaObject10ConnectionD1Ev(ptr noundef nonnull align 8 dereferenceable(8) %4) #24
  %.pre = load ptr, ptr %5, align 8
  br label %15

13:                                               ; preds = %7
  %14 = landingpad { ptr, i32 }
          cleanup
  tail call void @_ZdlPv(ptr noundef nonnull %8) #25
  resume { ptr, i32 } %14

15:                                               ; preds = %10, %3
  %16 = phi ptr [ %.pre, %10 ], [ %6, %3 ]
  %17 = getelementptr inbounds i8, ptr %0, i64 16
  %18 = load i8, ptr %17, align 8
  %19 = and i8 %18, 1
  %20 = icmp ne i8 %19, 0
  %21 = or i1 %20, %2
  %22 = zext i1 %21 to i8
  store i8 %22, ptr %17, align 8
  call void @_ZN6QTimer5startEi(ptr noundef nonnull align 8 dereferenceable(16) %16, i32 noundef %1)
  ret void
}